; Function Attrs: mustprogress nofree norecurse nosync nounwind willreturn memory(argmem: readwrite) uwtable
define void @_ZN32pxrInternal_v0_24__pxrReserved__9GfRange3fC2ERKNS_9GfRange3dE(ptr noundef nonnull writeonly align 4 captures(none) dereferenceable(24) initializes((0, 24)) %0, ptr noundef nonnull readonly align 8 captures(none) dereferenceable(48) %1) unnamed_addr #3 align 2 {
  %3 = load double, ptr %1, align 8
  %4 = fptrunc double %3 to float
  store float %4, ptr %0, align 4
  %5 = getelementptr inbounds nuw i8, ptr %1, i64 8
  %6 = load double, ptr %5, align 8
  %7 = fptrunc double %6 to float
  %8 = getelementptr inbounds nuw i8, ptr %0, i64 4
  store float %7, ptr %8, align 4
  %9 = getelementptr inbounds nuw i8, ptr %1, i64 16
  %10 = load double, ptr %9, align 8
  %11 = fptrunc double %10 to float
  %12 = getelementptr inbounds nuw i8, ptr %0, i64 8
  store float %11, ptr %12, align 4
  %13 = getelementptr inbounds nuw i8, ptr %0, i64 12
  %14 = getelementptr inbounds nuw i8, ptr %1, i64 24
  %15 = load double, ptr %14, align 8
  %16 = fptrunc double %15 to float
  store float %16, ptr %13, align 4
  %17 = getelementptr inbounds nuw i8, ptr %1, i64 32
  %18 = load double, ptr %17, align 8
  %19 = fptrunc double %18 to float
  %20 = getelementptr inbounds nuw i8, ptr %0, i64 16
  store float %19, ptr %20, align 4
  %21 = getelementptr inbounds nuw i8, ptr %1, i64 40
  %22 = load double, ptr %21, align 8
  %23 = fptrunc double %22 to float
  %24 = getelementptr inbounds nuw i8, ptr %0, i64 20
  store float %23, ptr %24, align 4
  ret void
}